target datalayout = "e-m:e-p270:32:32-p271:32:32-p272:64:64-i64:64-i128:128-f80:128-n8:16:32:64-S128"
target triple = "x86_64-pc-linux-gnu"

%struct.AVStreamGroup = type { ptr, ptr, i32, i64, i32, %union.anon, ptr, i32, ptr, i32 }
%union.anon = type { ptr }
%struct.AVStreamGroupTileGrid = type { ptr, i32, i32, i32, ptr, [4 x i8], i32, i32, i32, i32, ptr, i32 }

; Function Attrs: nounwind uwtable
define void @ff_free_stream_group(ptr noundef %0) #0 {
  %2 = alloca ptr, align 8
  %3 = alloca ptr, align 8
  %4 = alloca i32, align 4
  store ptr %0, ptr %2, align 8, !tbaa !40
  call void @llvm.lifetime.start.p0(i64 8, ptr %3) #11
  %5 = load ptr, ptr %2, align 8, !tbaa !40
  %6 = load ptr, ptr %5, align 8, !tbaa !42
  store ptr %6, ptr %3, align 8, !tbaa !42
  %7 = load ptr, ptr %3, align 8, !tbaa !42
  %8 = icmp ne ptr %7, null
  br i1 %8, label %10, label %9

9:                                                ; preds = %1
  store i32 1, ptr %4, align 4
  br label %53

10:                                               ; preds = %1
  %11 = load ptr, ptr %3, align 8, !tbaa !42
  %12 = getelementptr inbounds nuw %struct.AVStreamGroup, ptr %11, i32 0, i32 8
  call void @av_freep(ptr noundef %12)
  %13 = load ptr, ptr %3, align 8, !tbaa !42
  %14 = getelementptr inbounds nuw %struct.AVStreamGroup, ptr %13, i32 0, i32 6
  call void @av_dict_free(ptr noundef %14)
  %15 = load ptr, ptr %3, align 8, !tbaa !42
  %16 = getelementptr inbounds nuw %struct.AVStreamGroup, ptr %15, i32 0, i32 1
  call void @av_freep(ptr noundef %16)
  %17 = load ptr, ptr %3, align 8, !tbaa !42
  %18 = getelementptr inbounds nuw %struct.AVStreamGroup, ptr %17, i32 0, i32 4
  %19 = load i32, ptr %18, align 8, !tbaa !44
  switch i32 %19, label %50 [
    i32 1, label %20
    i32 2, label %23
    i32 3, label %26
    i32 4, label %44
  ]

20:                                               ; preds = %10
  %21 = load ptr, ptr %3, align 8, !tbaa !42
  %22 = getelementptr inbounds nuw %struct.AVStreamGroup, ptr %21, i32 0, i32 5
  call void @av_iamf_audio_element_free(ptr noundef %22)
  br label %51

23:                                               ; preds = %10
  %24 = load ptr, ptr %3, align 8, !tbaa !42
  %25 = getelementptr inbounds nuw %struct.AVStreamGroup, ptr %24, i32 0, i32 5
  call void @av_iamf_mix_presentation_free(ptr noundef %25)
  br label %51

26:                                               ; preds = %10
  %27 = load ptr, ptr %3, align 8, !tbaa !42
  %28 = getelementptr inbounds nuw %struct.AVStreamGroup, ptr %27, i32 0, i32 5
  %29 = load ptr, ptr %28, align 8, !tbaa !46
  call void @av_opt_free(ptr noundef %29)
  %30 = load ptr, ptr %3, align 8, !tbaa !42
  %31 = getelementptr inbounds nuw %struct.AVStreamGroup, ptr %30, i32 0, i32 5
  %32 = load ptr, ptr %31, align 8, !tbaa !46
  %33 = getelementptr inbounds nuw %struct.AVStreamGroupTileGrid, ptr %32, i32 0, i32 4
  call void @av_freep(ptr noundef %33)
  %34 = load ptr, ptr %3, align 8, !tbaa !42
  %35 = getelementptr inbounds nuw %struct.AVStreamGroup, ptr %34, i32 0, i32 5
  %36 = load ptr, ptr %35, align 8, !tbaa !46
  %37 = getelementptr inbounds nuw %struct.AVStreamGroupTileGrid, ptr %36, i32 0, i32 10
  %38 = load ptr, ptr %3, align 8, !tbaa !42
  %39 = getelementptr inbounds nuw %struct.AVStreamGroup, ptr %38, i32 0, i32 5
  %40 = load ptr, ptr %39, align 8, !tbaa !46
  %41 = getelementptr inbounds nuw %struct.AVStreamGroupTileGrid, ptr %40, i32 0, i32 11
  call void @av_packet_side_data_free(ptr noundef %37, ptr noundef %41)
  %42 = load ptr, ptr %3, align 8, !tbaa !42
  %43 = getelementptr inbounds nuw %struct.AVStreamGroup, ptr %42, i32 0, i32 5
  call void @av_freep(ptr noundef %43)
  br label %51

44:                                               ; preds = %10
  %45 = load ptr, ptr %3, align 8, !tbaa !42
  %46 = getelementptr inbounds nuw %struct.AVStreamGroup, ptr %45, i32 0, i32 5
  %47 = load ptr, ptr %46, align 8, !tbaa !46
  call void @av_opt_free(ptr noundef %47)
  %48 = load ptr, ptr %3, align 8, !tbaa !42
  %49 = getelementptr inbounds nuw %struct.AVStreamGroup, ptr %48, i32 0, i32 5
  call void @av_freep(ptr noundef %49)
  br label %51

50:                                               ; preds = %10
  br label %51

51:                                               ; preds = %50, %44, %26, %23, %20
  %52 = load ptr, ptr %2, align 8, !tbaa !40
  call void @av_freep(ptr noundef %52)
  store i32 0, ptr %4, align 4
  br label %53

53:                                               ; preds = %51, %9
  call void @llvm.lifetime.end.p0(i64 8, ptr %3) #11
  %54 = load i32, ptr %4, align 4
  switch i32 %54, label %56 [
    i32 0, label %55
    i32 1, label %55
  ]

55:                                               ; preds = %53, %53
  ret void

56:                                               ; preds = %53
  unreachable
}