; Function Attrs: nounwind uwtable
define void @ff_free_stream_group(ptr noundef %0) local_unnamed_addr #0 {
  %2 = load ptr, ptr %0, align 8, !tbaa !35
  %.not = icmp eq ptr %2, null
  br i1 %.not, label %25, label %3

3:                                                ; preds = %1
  %4 = getelementptr inbounds nuw i8, ptr %2, i64 64
  tail call void @av_freep(ptr noundef nonnull %4) #13
  %5 = getelementptr inbounds nuw i8, ptr %2, i64 48
  tail call void @av_dict_free(ptr noundef nonnull %5) #13
  %6 = getelementptr inbounds nuw i8, ptr %2, i64 8
  tail call void @av_freep(ptr noundef nonnull %6) #13
  %7 = getelementptr inbounds nuw i8, ptr %2, i64 32
  %8 = load i32, ptr %7, align 8, !tbaa !37
  switch i32 %8, label %24 [
    i32 1, label %9
    i32 2, label %11
    i32 3, label %13
    i32 4, label %21
  ]

9:                                                ; preds = %3
  %10 = getelementptr inbounds nuw i8, ptr %2, i64 40
  tail call void @av_iamf_audio_element_free(ptr noundef nonnull %10) #13
  br label %24

11:                                               ; preds = %3
  %12 = getelementptr inbounds nuw i8, ptr %2, i64 40
  tail call void @av_iamf_mix_presentation_free(ptr noundef nonnull %12) #13
  br label %24

13:                                               ; preds = %3
  %14 = getelementptr inbounds nuw i8, ptr %2, i64 40
  %15 = load ptr, ptr %14, align 8, !tbaa !41
  tail call void @av_opt_free(ptr noundef %15) #13
  %16 = load ptr, ptr %14, align 8, !tbaa !41
  %17 = getelementptr inbounds nuw i8, ptr %16, i64 24
  tail call void @av_freep(ptr noundef nonnull %17) #13
  %18 = load ptr, ptr %14, align 8, !tbaa !41
  %19 = getelementptr inbounds nuw i8, ptr %18, i64 56
  %20 = getelementptr inbounds nuw i8, ptr %18, i64 64
  tail call void @av_packet_side_data_free(ptr noundef nonnull %19, ptr noundef nonnull %20) #13
  tail call void @av_freep(ptr noundef nonnull %14) #13
  br label %24

21:                                               ; preds = %3
  %22 = getelementptr inbounds nuw i8, ptr %2, i64 40
  %23 = load ptr, ptr %22, align 8, !tbaa !41
  tail call void @av_opt_free(ptr noundef %23) #13
  tail call void @av_freep(ptr noundef nonnull %22) #13
  br label %24

24:                                               ; preds = %3, %21, %13, %11, %9
  tail call void @av_freep(ptr noundef nonnull %0) #13
  br label %25

25:                                               ; preds = %1, %24
  ret void
}